ccollections
OrderedDict
p0
((lp1
(lp2
Ve
p3
aI1
aa(lp4
Va
p5
aI2
aa(lp6
Vi
p7
aI3
aa(lp8
Vt
p9
aI4
aa(lp10
Vo
p11
aI5
aa(lp12
Vn
p13
aI6
aa(lp14
Vs
p15
aI7
aa(lp16
Vr
p17
aI8
aa(lp18
Vl
p19
aI9
aa(lp20
Vd
p21
aI10
aa(lp22
Vh
p23
aI11
aa(lp24
Vc
p25
aI12
aa(lp26
Vm
p27
aI13
aa(lp28
Vu
p29
aI14
aa(lp30
Vp
p31
aI15
aa(lp32
V.
p33
aI16
aa(lp34
Vg
p35
aI17
aa(lp36
Vy
p37
aI18
aa(lp38
Vf
p39
aI19
aa(lp40
V,
p41
aI20
aa(lp42
Vw
p43
aI21
aa(lp44
Vb
p45
aI22
aa(lp46
V0
p47
aI23
aa(lp48
V1
p49
aI24
aa(lp50
VA
p51
aI25
aa(lp52
VT
p53
aI26
aa(lp54
V2
p55
aI27
aa(lp56
VS
p57
aI28
aa(lp58
Vv
p59
aI29
aa(lp60
VI
p61
aI30
aa(lp62
VE
p63
aI31
aa(lp64
V/
p65
aI32
aa(lp66
V:
p67
aI33
aa(lp68
VN
p69
aI34
aa(lp70
VP
p71
aI35
aa(lp72
VC
p73
aI36
aa(lp74
VD
p75
aI37
aa(lp76
V-
p77
aI38
aa(lp78
V_
p79
aI39
aa(lp80
VH
p81
aI40
aa(lp82
VR
p83
aI41
aa(lp84
VM
p85
aI42
aa(lp86
VL
p87
aI43
aa(lp88
VO
p89
aI44
aa(lp90
V5
p91
aI45
aa(lp92
Vk
p93
aI46
aa(lp94
V3
p95
aI47
aa(lp96
V4
p97
aI48
aa(lp98
V8
p99
aI49
aa(lp100
Vx
p101
aI50
aa(lp102
V7
p103
aI51
aa(lp104
V6
p105
aI52
aa(lp106
VB
p107
aI53
aa(lp108
VG
p109
aI54
aa(lp110
V)
p111
aI55
aa(lp112
V9
p113
aI56
aa(lp114
V(
p115
aI57
aa(lp116
VV
p117
aI58
aa(lp118
VF
p119
aI59
aa(lp120
VU
p121
aI60
aa(lp122
V*
p123
aI61
aa(lp124
VW
p125
aI62
aa(lp126
VY
p127
aI63
aa(lp128
Vq
p129
aI64
aa(lp130
Vz
p131
aI65
aa(lp132
VQ
p133
aI66
aa(lp134
V;
p135
aI67
aa(lp136
VK
p137
aI68
aa(lp138
V=
p139
aI69
aa(lp140
V%
p141
aI70
aa(lp142
VX
p143
aI71
aa(lp144
V#
p145
aI72
aa(lp146
V+
p147
aI73
aa(lp148
V'
p149
aI74
aa(lp150
VJ
p151
aI75
aa(lp152
Vj
p153
aI76
aa(lp154
V&
p155
aI77
aa(lp156
VZ
p157
aI78
aa(lp158
V"
p159
aI79
aa(lp160
V[
p161
aI80
aa(lp162
V]
p163
aI81
aa(lp164
V?
p165
aI82
aa(lp166
V^
p167
aI83
aa(lp168
V>
p169
aI84
aa(lp170
V<
p171
aI85
aa(lp172
V~
p173
aI86
aa(lp174
V@
p175
aI87
aa(lp176
V!
p177
aI88
aa(lp178
V{
p179
aI89
aa(lp180
V}
p181
aI90
aa(lp182
V\u005c
p183
aI91
aa(lp184
V$
p185
aI92
aa(lp186
V\u2019
p187
aI93
aa(lp188
V`
p189
aI94
aatp190
Rp191
.